target datalayout = "e-m:e-p270:32:32-p271:32:32-p272:64:64-i64:64-i128:128-f80:128-n8:16:32:64-S128"
target triple = "x86_64-pc-linux-gnu"

%struct.h5tools_str_t = type { ptr, i64, i64 }
%struct.h5tools_context_t = type { i64, i64, i32, i32, [32 x i64], [32 x i64], i32, i64, i32, i64, i32, i32, [32 x i64], [32 x i64], i64, ptr, ptr, i32, i32 }
%struct.h5tool_format_t = type { i8, ptr, ptr, ptr, ptr, ptr, ptr, ptr, ptr, ptr, ptr, ptr, ptr, ptr, ptr, ptr, ptr, ptr, i32, i32, i32, ptr, ptr, ptr, i32, ptr, ptr, ptr, ptr, ptr, ptr, ptr, ptr, ptr, ptr, ptr, ptr, ptr, ptr, ptr, ptr, i32, i64, ptr, ptr, ptr, ptr, ptr, i32, ptr, i32, i32, ptr, i32, ptr, ptr, ptr, ptr, i32, i32 }

@verbose_g = internal global i32 0, align 4
@rawoutstream = external global ptr, align 8
@.str.47 = private unnamed_addr constant [3 x i8] c" {\00", align 1
@.str.48 = private unnamed_addr constant [6 x i8] c"%s%lu\00", align 1
@.str.49 = private unnamed_addr constant [3 x i8] c", \00", align 1
@.str.50 = private unnamed_addr constant [1 x i8] zeroinitializer, align 1
@.str.51 = private unnamed_addr constant [4 x i8] c"/%s\00", align 1
@.str.52 = private unnamed_addr constant [4 x i8] c"Inf\00", align 1
@.str.53 = private unnamed_addr constant [5 x i8] c"/%lu\00", align 1
@.str.54 = private unnamed_addr constant [7 x i8] c"SCALAR\00", align 1
@.str.55 = private unnamed_addr constant [5 x i8] c"NULL\00", align 1
@.str.56 = private unnamed_addr constant [2 x i8] c"}\00", align 1

; Function Attrs: nounwind uwtable
define internal i32 @dataset_list1(i64 noundef %0) #0 {
  %2 = alloca i64, align 8
  %3 = alloca [32 x i64], align 16
  %4 = alloca [32 x i64], align 16
  %5 = alloca i64, align 8
  %6 = alloca i32, align 4
  %7 = alloca i32, align 4
  %8 = alloca i32, align 4
  %9 = alloca i64, align 8
  %10 = alloca %struct.h5tools_str_t, align 8
  %11 = alloca %struct.h5tools_context_t, align 8
  %12 = alloca ptr, align 8
  store i64 %0, ptr %2, align 8, !tbaa !11
  call void @llvm.lifetime.start.p0(i64 256, ptr %3) #12
  call void @llvm.lifetime.start.p0(i64 256, ptr %4) #12
  call void @llvm.lifetime.start.p0(i64 8, ptr %5) #12
  call void @llvm.lifetime.start.p0(i64 4, ptr %6) #12
  call void @llvm.lifetime.start.p0(i64 4, ptr %7) #12
  call void @llvm.lifetime.start.p0(i64 4, ptr %8) #12
  call void @llvm.lifetime.start.p0(i64 8, ptr %9) #12
  store i64 0, ptr %9, align 8, !tbaa !11
  call void @llvm.lifetime.start.p0(i64 24, ptr %10) #12
  call void @llvm.lifetime.start.p0(i64 1120, ptr %11) #12
  call void @llvm.lifetime.start.p0(i64 8, ptr %12) #12
  store ptr @ls_dataformat, ptr %12, align 8, !tbaa !52
  call void @llvm.memset.p0.i64(ptr align 8 %11, i8 0, i64 1120, i1 false)
  call void @llvm.memset.p0.i64(ptr align 8 %10, i8 0, i64 24, i1 false)
  %13 = call ptr @h5tools_str_reset(ptr noundef %10)
  %14 = load i64, ptr %2, align 8, !tbaa !11
  %15 = call i64 @H5Dget_space(i64 noundef %14)
  store i64 %15, ptr %5, align 8, !tbaa !11
  %16 = load i64, ptr %5, align 8, !tbaa !11
  %17 = call i32 @H5Sget_simple_extent_type(i64 noundef %16)
  store i32 %17, ptr %7, align 4, !tbaa !4
  %18 = load i64, ptr %5, align 8, !tbaa !11
  %19 = getelementptr inbounds [32 x i64], ptr %3, i64 0, i64 0
  %20 = getelementptr inbounds [32 x i64], ptr %4, i64 0, i64 0
  %21 = call i32 @H5Sget_simple_extent_dims(i64 noundef %18, ptr noundef %19, ptr noundef %20)
  store i32 %21, ptr %6, align 4, !tbaa !4
  %22 = call ptr (ptr, ptr, ...) @h5tools_str_append(ptr noundef %10, ptr noundef @.str.47)
  store i32 0, ptr %8, align 4, !tbaa !4
  br label %23

23:                                               ; preds = %64, %1
  %24 = load i32, ptr %8, align 4, !tbaa !4
  %25 = load i32, ptr %6, align 4, !tbaa !4
  %26 = icmp slt i32 %24, %25
  br i1 %26, label %27, label %67

27:                                               ; preds = %23
  %28 = load i32, ptr %8, align 4, !tbaa !4
  %29 = icmp ne i32 %28, 0
  %30 = select i1 %29, ptr @.str.49, ptr @.str.50
  %31 = load i32, ptr %8, align 4, !tbaa !4
  %32 = sext i32 %31 to i64
  %33 = getelementptr inbounds [32 x i64], ptr %3, i64 0, i64 %32
  %34 = load i64, ptr %33, align 8, !tbaa !11
  %35 = call ptr (ptr, ptr, ...) @h5tools_str_append(ptr noundef %10, ptr noundef @.str.48, ptr noundef %30, i64 noundef %34)
  %36 = load i32, ptr %8, align 4, !tbaa !4
  %37 = sext i32 %36 to i64
  %38 = getelementptr inbounds [32 x i64], ptr %4, i64 0, i64 %37
  %39 = load i64, ptr %38, align 8, !tbaa !11
  %40 = icmp eq i64 %39, -1
  br i1 %40, label %41, label %43

41:                                               ; preds = %27
  %42 = call ptr (ptr, ptr, ...) @h5tools_str_append(ptr noundef %10, ptr noundef @.str.51, ptr noundef @.str.52)
  br label %63

43:                                               ; preds = %27
  %44 = load i32, ptr %8, align 4, !tbaa !4
  %45 = sext i32 %44 to i64
  %46 = getelementptr inbounds [32 x i64], ptr %4, i64 0, i64 %45
  %47 = load i64, ptr %46, align 8, !tbaa !11
  %48 = load i32, ptr %8, align 4, !tbaa !4
  %49 = sext i32 %48 to i64
  %50 = getelementptr inbounds [32 x i64], ptr %3, i64 0, i64 %49
  %51 = load i64, ptr %50, align 8, !tbaa !11
  %52 = icmp ne i64 %47, %51
  br i1 %52, label %56, label %53

53:                                               ; preds = %43
  %54 = load i32, ptr @verbose_g, align 4, !tbaa !4
  %55 = icmp sgt i32 %54, 0
  br i1 %55, label %56, label %62

56:                                               ; preds = %53, %43
  %57 = load i32, ptr %8, align 4, !tbaa !4
  %58 = sext i32 %57 to i64
  %59 = getelementptr inbounds [32 x i64], ptr %4, i64 0, i64 %58
  %60 = load i64, ptr %59, align 8, !tbaa !11
  %61 = call ptr (ptr, ptr, ...) @h5tools_str_append(ptr noundef %10, ptr noundef @.str.53, i64 noundef %60)
  br label %62

62:                                               ; preds = %56, %53
  br label %63

63:                                               ; preds = %62, %41
  br label %64

64:                                               ; preds = %63
  %65 = load i32, ptr %8, align 4, !tbaa !4
  %66 = add nsw i32 %65, 1
  store i32 %66, ptr %8, align 4, !tbaa !4
  br label %23, !llvm.loop !64

67:                                               ; preds = %23
  %68 = load i32, ptr %7, align 4, !tbaa !4
  %69 = icmp eq i32 %68, 0
  br i1 %69, label %70, label %72

70:                                               ; preds = %67
  %71 = call ptr (ptr, ptr, ...) @h5tools_str_append(ptr noundef %10, ptr noundef @.str.54)
  br label %78

72:                                               ; preds = %67
  %73 = load i32, ptr %7, align 4, !tbaa !4
  %74 = icmp eq i32 %73, 2
  br i1 %74, label %75, label %77

75:                                               ; preds = %72
  %76 = call ptr (ptr, ptr, ...) @h5tools_str_append(ptr noundef %10, ptr noundef @.str.55)
  br label %77

77:                                               ; preds = %75, %72
  br label %78

78:                                               ; preds = %77, %70
  %79 = call ptr (ptr, ptr, ...) @h5tools_str_append(ptr noundef %10, ptr noundef @.str.56)
  %80 = load ptr, ptr @rawoutstream, align 8, !tbaa !28
  %81 = load ptr, ptr %12, align 8, !tbaa !52
  %82 = load ptr, ptr %12, align 8, !tbaa !52
  %83 = getelementptr inbounds nuw %struct.h5tool_format_t, ptr %82, i32 0, i32 41
  %84 = load i32, ptr %83, align 8, !tbaa !54
  %85 = zext i32 %84 to i64
  %86 = call zeroext i1 @h5tools_render_element(ptr noundef %80, ptr noundef %81, ptr noundef %11, ptr noundef %10, ptr noundef %9, i64 noundef %85, i64 noundef 0, i64 noundef 0)
  %87 = load i64, ptr %5, align 8, !tbaa !11
  %88 = call i32 @H5Sclose(i64 noundef %87)
  call void @h5tools_str_close(ptr noundef %10)
  call void @llvm.lifetime.end.p0(i64 8, ptr %12) #12
  call void @llvm.lifetime.end.p0(i64 1120, ptr %11) #12
  call void @llvm.lifetime.end.p0(i64 24, ptr %10) #12
  call void @llvm.lifetime.end.p0(i64 8, ptr %9) #12
  call void @llvm.lifetime.end.p0(i64 4, ptr %8) #12
  call void @llvm.lifetime.end.p0(i64 4, ptr %7) #12
  call void @llvm.lifetime.end.p0(i64 4, ptr %6) #12
  call void @llvm.lifetime.end.p0(i64 8, ptr %5) #12
  call void @llvm.lifetime.end.p0(i64 256, ptr %4) #12
  call void @llvm.lifetime.end.p0(i64 256, ptr %3) #12
  ret i32 0
}