; Function Attrs: nounwind uwtable
define internal noundef i32 @dataset_list1(i64 noundef %0) #4 {
  %2 = alloca [32 x i64], align 16
  %3 = alloca [32 x i64], align 16
  %4 = alloca i64, align 8
  %5 = alloca %struct.h5tools_str_t, align 8
  %6 = alloca %struct.h5tools_context_t, align 8
  call void @llvm.lifetime.start.p0(i64 256, ptr nonnull %2) #20
  call void @llvm.lifetime.start.p0(i64 256, ptr nonnull %3) #20
  call void @llvm.lifetime.start.p0(i64 8, ptr nonnull %4) #20
  store i64 0, ptr %4, align 8, !tbaa !44
  call void @llvm.lifetime.start.p0(i64 24, ptr nonnull %5) #20
  call void @llvm.lifetime.start.p0(i64 1120, ptr nonnull %6) #20
  call void @llvm.memset.p0.i64(ptr noundef nonnull align 8 dereferenceable(1120) %6, i8 0, i64 1120, i1 false)
  call void @llvm.memset.p0.i64(ptr noundef nonnull align 8 dereferenceable(24) %5, i8 0, i64 24, i1 false)
  %7 = call ptr @h5tools_str_reset(ptr noundef nonnull %5) #20
  %8 = call i64 @H5Dget_space(i64 noundef %0) #20
  %9 = call i32 @H5Sget_simple_extent_type(i64 noundef %8) #20
  %10 = call i32 @H5Sget_simple_extent_dims(i64 noundef %8, ptr noundef nonnull %2, ptr noundef nonnull %3) #20
  %11 = call ptr (ptr, ptr, ...) @h5tools_str_append(ptr noundef nonnull %5, ptr noundef nonnull @.str.47) #20
  %12 = icmp sgt i32 %10, 0
  br i1 %12, label %.lr.ph.preheader, label %._crit_edge

.lr.ph.preheader:                                 ; preds = %1
  %wide.trip.count = zext nneg i32 %10 to i64
  br label %.lr.ph

.lr.ph:                                           ; preds = %.lr.ph.preheader, %29
  %indvars.iv = phi i64 [ 0, %.lr.ph.preheader ], [ %indvars.iv.next, %29 ]
  %.not = icmp eq i64 %indvars.iv, 0
  %13 = select i1 %.not, ptr @.str.50, ptr @.str.49
  %14 = getelementptr inbounds nuw [32 x i64], ptr %2, i64 0, i64 %indvars.iv
  %15 = load i64, ptr %14, align 8, !tbaa !44
  %16 = call ptr (ptr, ptr, ...) @h5tools_str_append(ptr noundef nonnull %5, ptr noundef nonnull @.str.48, ptr noundef nonnull %13, i64 noundef %15) #20
  %17 = getelementptr inbounds nuw [32 x i64], ptr %3, i64 0, i64 %indvars.iv
  %18 = load i64, ptr %17, align 8, !tbaa !44
  %19 = icmp eq i64 %18, -1
  br i1 %19, label %20, label %22

20:                                               ; preds = %.lr.ph
  %21 = call ptr (ptr, ptr, ...) @h5tools_str_append(ptr noundef nonnull %5, ptr noundef nonnull @.str.51, ptr noundef nonnull @.str.52) #20
  br label %29

22:                                               ; preds = %.lr.ph
  %23 = load i64, ptr %14, align 8, !tbaa !44
  %24 = icmp ne i64 %18, %23
  %25 = load i32, ptr @verbose_g, align 4
  %26 = icmp sgt i32 %25, 0
  %or.cond = select i1 %24, i1 true, i1 %26
  br i1 %or.cond, label %27, label %29

27:                                               ; preds = %22
  %28 = call ptr (ptr, ptr, ...) @h5tools_str_append(ptr noundef nonnull %5, ptr noundef nonnull @.str.53, i64 noundef %18) #20
  br label %29

29:                                               ; preds = %20, %22, %27
  %indvars.iv.next = add nuw nsw i64 %indvars.iv, 1
  %exitcond.not = icmp eq i64 %indvars.iv.next, %wide.trip.count
  br i1 %exitcond.not, label %._crit_edge, label %.lr.ph, !llvm.loop !62

._crit_edge:                                      ; preds = %29, %1
  switch i32 %9, label %32 [
    i32 0, label %.sink.split
    i32 2, label %30
  ]

30:                                               ; preds = %._crit_edge
  br label %.sink.split

.sink.split:                                      ; preds = %._crit_edge, %30
  %.str.55.sink = phi ptr [ @.str.55, %30 ], [ @.str.54, %._crit_edge ]
  %31 = call ptr (ptr, ptr, ...) @h5tools_str_append(ptr noundef nonnull %5, ptr noundef nonnull %.str.55.sink) #20
  br label %32

32:                                               ; preds = %.sink.split, %._crit_edge
  %33 = call ptr (ptr, ptr, ...) @h5tools_str_append(ptr noundef nonnull %5, ptr noundef nonnull @.str.56) #20
  %34 = load ptr, ptr @rawoutstream, align 8, !tbaa !26
  %35 = load i32, ptr getelementptr inbounds nuw (i8, ptr @ls_dataformat, i64 320), align 8, !tbaa !47
  %36 = zext i32 %35 to i64
  %37 = call zeroext i1 @h5tools_render_element(ptr noundef %34, ptr noundef nonnull @ls_dataformat, ptr noundef nonnull %6, ptr noundef nonnull %5, ptr noundef nonnull %4, i64 noundef %36, i64 noundef 0, i64 noundef 0) #20
  %38 = call i32 @H5Sclose(i64 noundef %8) #20
  call void @h5tools_str_close(ptr noundef nonnull %5) #20
  call void @llvm.lifetime.end.p0(i64 1120, ptr nonnull %6) #20
  call void @llvm.lifetime.end.p0(i64 24, ptr nonnull %5) #20
  call void @llvm.lifetime.end.p0(i64 8, ptr nonnull %4) #20
  call void @llvm.lifetime.end.p0(i64 256, ptr nonnull %3) #20
  call void @llvm.lifetime.end.p0(i64 256, ptr nonnull %2) #20
  ret i32 0
}